; ModuleID = 'source-C-CXX/33/2783.cpp'
source_filename = "source-C-CXX/33/2783.cpp"
target datalayout = "e-m:e-p270:32:32-p271:32:32-p272:64:64-i64:64-f80:128-n8:16:32:64-S128"
target triple = "x86_64-pc-linux-gnu"

%"class.std::ios_base::Init" = type { i8 }
%"class.std::basic_istream" = type { i32 (...)**, i64, %"class.std::basic_ios" }
%"class.std::basic_ios" = type { %"class.std::ios_base", %"class.std::basic_ostream"*, i8, i8, %"class.std::basic_streambuf"*, %"class.std::ctype"*, %"class.std::num_put"*, %"class.std::num_get"* }
%"class.std::ios_base" = type { i32 (...)**, i64, i64, i32, i32, i32, %"struct.std::ios_base::_Callback_list"*, %"struct.std::ios_base::_Words", [8 x %"struct.std::ios_base::_Words"], i32, %"struct.std::ios_base::_Words"*, %"class.std::locale" }
%"struct.std::ios_base::_Callback_list" = type { %"struct.std::ios_base::_Callback_list"*, void (i32, %"class.std::ios_base"*, i32)*, i32, i32 }
%"struct.std::ios_base::_Words" = type { i8*, i64 }
%"class.std::locale" = type { %"class.std::locale::_Impl"* }
%"class.std::locale::_Impl" = type { i32, %"class.std::locale::facet"**, i64, %"class.std::locale::facet"**, i8** }
%"class.std::locale::facet" = type <{ i32 (...)**, i32, [4 x i8] }>
%"class.std::basic_ostream" = type { i32 (...)**, %"class.std::basic_ios" }
%"class.std::basic_streambuf" = type { i32 (...)**, i8*, i8*, i8*, i8*, i8*, i8*, %"class.std::locale" }
%"class.std::ctype" = type <{ %"class.std::locale::facet.base", [4 x i8], %struct.__locale_struct*, i8, [7 x i8], i32*, i32*, i16*, i8, [256 x i8], [256 x i8], i8, [6 x i8] }>
%"class.std::locale::facet.base" = type <{ i32 (...)**, i32 }>
%struct.__locale_struct = type { [13 x %struct.__locale_data*], i16*, i32*, i32*, [13 x i8*] }
%struct.__locale_data = type opaque
%"class.std::num_put" = type { %"class.std::locale::facet.base", [4 x i8] }
%"class.std::num_get" = type { %"class.std::locale::facet.base", [4 x i8] }

@_ZStL8__ioinit = internal global %"class.std::ios_base::Init" zeroinitializer, align 1
@__dso_handle = external hidden global i8
@_ZSt3cin = external global %"class.std::basic_istream", align 8
@_ZSt4cout = external global %"class.std::basic_ostream", align 8
@.str = private unnamed_addr constant [4 x i8] c"End\00", align 1
@.str.1 = private unnamed_addr constant [6 x i8] c"*3+1=\00", align 1
@.str.2 = private unnamed_addr constant [4 x i8] c"/2=\00", align 1
@llvm.global_ctors = appending global [1 x { i32, void ()*, i8* }] [{ i32, void ()*, i8* } { i32 65535, void ()* @_GLOBAL__sub_I_2783.cpp, i8* null }]

declare void @_ZNSt8ios_base4InitC1Ev(%"class.std::ios_base::Init"* nonnull align 1 dereferenceable(1)) unnamed_addr #0

; Function Attrs: nounwind
declare void @_ZNSt8ios_base4InitD1Ev(%"class.std::ios_base::Init"* nonnull align 1 dereferenceable(1)) unnamed_addr #1

; Function Attrs: nofree nounwind
declare i32 @__cxa_atexit(void (i8*)*, i8*, i8*) local_unnamed_addr #2

; Function Attrs: mustprogress norecurse sspstrong uwtable
define dso_local i32 @main() local_unnamed_addr #3 {
  %1 = alloca i32, align 4
  %2 = bitcast i32* %1 to i8*
  call void @llvm.lifetime.start.p0i8(i64 4, i8* nonnull %2) #7
  %3 = call nonnull align 8 dereferenceable(16) %"class.std::basic_istream"* @_ZNSirsERi(%"class.std::basic_istream"* nonnull align 8 dereferenceable(16) @_ZSt3cin, i32* nonnull align 4 dereferenceable(4) %1)
  %4 = load i32, i32* %1, align 4
  %5 = icmp eq i32 %4, 1
  br i1 %5, label %6, label %35, !llvm.loop !5

6:                                                ; preds = %114, %0
  %7 = call nonnull align 8 dereferenceable(8) %"class.std::basic_ostream"* @_ZSt16__ostream_insertIcSt11char_traitsIcEERSt13basic_ostreamIT_T0_ES6_PKS3_l(%"class.std::basic_ostream"* nonnull align 8 dereferenceable(8) @_ZSt4cout, i8* nonnull getelementptr inbounds ([4 x i8], [4 x i8]* @.str, i64 0, i64 0), i64 3)
  %8 = load i8*, i8** bitcast (%"class.std::basic_ostream"* @_ZSt4cout to i8**), align 8, !tbaa !7
  %9 = getelementptr i8, i8* %8, i64 -24
  %10 = bitcast i8* %9 to i64*
  %11 = load i64, i64* %10, align 8
  %12 = add nsw i64 %11, 240
  %13 = getelementptr inbounds i8, i8* bitcast (%"class.std::basic_ostream"* @_ZSt4cout to i8*), i64 %12
  %14 = bitcast i8* %13 to %"class.std::ctype"**
  %15 = load %"class.std::ctype"*, %"class.std::ctype"** %14, align 8, !tbaa !10
  %16 = icmp eq %"class.std::ctype"* %15, null
  br i1 %16, label %17, label %18

17:                                               ; preds = %6
  call void @_ZSt16__throw_bad_castv() #8
  unreachable

18:                                               ; preds = %6
  %19 = getelementptr inbounds %"class.std::ctype", %"class.std::ctype"* %15, i64 0, i32 8
  %20 = load i8, i8* %19, align 8, !tbaa !15
  %21 = icmp eq i8 %20, 0
  br i1 %21, label %25, label %22

22:                                               ; preds = %18
  %23 = getelementptr inbounds %"class.std::ctype", %"class.std::ctype"* %15, i64 0, i32 9, i64 10
  %24 = load i8, i8* %23, align 1, !tbaa !17
  br label %31

25:                                               ; preds = %18
  call void @_ZNKSt5ctypeIcE13_M_widen_initEv(%"class.std::ctype"* nonnull align 8 dereferenceable(570) %15)
  %26 = bitcast %"class.std::ctype"* %15 to i8 (%"class.std::ctype"*, i8)***
  %27 = load i8 (%"class.std::ctype"*, i8)**, i8 (%"class.std::ctype"*, i8)*** %26, align 8, !tbaa !7
  %28 = getelementptr inbounds i8 (%"class.std::ctype"*, i8)*, i8 (%"class.std::ctype"*, i8)** %27, i64 6
  %29 = load i8 (%"class.std::ctype"*, i8)*, i8 (%"class.std::ctype"*, i8)** %28, align 8
  %30 = call signext i8 %29(%"class.std::ctype"* nonnull align 8 dereferenceable(570) %15, i8 signext 10)
  br label %31

31:                                               ; preds = %22, %25
  %32 = phi i8 [ %24, %22 ], [ %30, %25 ]
  %33 = call nonnull align 8 dereferenceable(8) %"class.std::basic_ostream"* @_ZNSo3putEc(%"class.std::basic_ostream"* nonnull align 8 dereferenceable(8) @_ZSt4cout, i8 signext %32)
  %34 = call nonnull align 8 dereferenceable(8) %"class.std::basic_ostream"* @_ZNSo5flushEv(%"class.std::basic_ostream"* nonnull align 8 dereferenceable(8) %33)
  call void @llvm.lifetime.end.p0i8(i64 4, i8* nonnull %2) #7
  ret i32 0

35:                                               ; preds = %0, %114
  %36 = phi i32 [ %115, %114 ], [ %4, %0 ]
  %37 = srem i32 %36, 2
  %38 = icmp eq i32 %37, 1
  %39 = call nonnull align 8 dereferenceable(8) %"class.std::basic_ostream"* @_ZNSolsEi(%"class.std::basic_ostream"* nonnull align 8 dereferenceable(8) @_ZSt4cout, i32 %36)
  br i1 %38, label %40, label %78

40:                                               ; preds = %35
  %41 = call nonnull align 8 dereferenceable(8) %"class.std::basic_ostream"* @_ZSt16__ostream_insertIcSt11char_traitsIcEERSt13basic_ostreamIT_T0_ES6_PKS3_l(%"class.std::basic_ostream"* nonnull align 8 dereferenceable(8) %39, i8* nonnull getelementptr inbounds ([6 x i8], [6 x i8]* @.str.1, i64 0, i64 0), i64 5)
  %42 = load i32, i32* %1, align 4, !tbaa !18
  %43 = mul nsw i32 %42, 3
  %44 = add nsw i32 %43, 1
  %45 = call nonnull align 8 dereferenceable(8) %"class.std::basic_ostream"* @_ZNSolsEi(%"class.std::basic_ostream"* nonnull align 8 dereferenceable(8) %39, i32 %44)
  %46 = bitcast %"class.std::basic_ostream"* %45 to i8**
  %47 = load i8*, i8** %46, align 8, !tbaa !7
  %48 = getelementptr i8, i8* %47, i64 -24
  %49 = bitcast i8* %48 to i64*
  %50 = load i64, i64* %49, align 8
  %51 = bitcast %"class.std::basic_ostream"* %45 to i8*
  %52 = add nsw i64 %50, 240
  %53 = getelementptr inbounds i8, i8* %51, i64 %52
  %54 = bitcast i8* %53 to %"class.std::ctype"**
  %55 = load %"class.std::ctype"*, %"class.std::ctype"** %54, align 8, !tbaa !10
  %56 = icmp eq %"class.std::ctype"* %55, null
  br i1 %56, label %57, label %58

57:                                               ; preds = %40
  call void @_ZSt16__throw_bad_castv() #8
  unreachable

58:                                               ; preds = %40
  %59 = getelementptr inbounds %"class.std::ctype", %"class.std::ctype"* %55, i64 0, i32 8
  %60 = load i8, i8* %59, align 8, !tbaa !15
  %61 = icmp eq i8 %60, 0
  br i1 %61, label %65, label %62

62:                                               ; preds = %58
  %63 = getelementptr inbounds %"class.std::ctype", %"class.std::ctype"* %55, i64 0, i32 9, i64 10
  %64 = load i8, i8* %63, align 1, !tbaa !17
  br label %71

65:                                               ; preds = %58
  call void @_ZNKSt5ctypeIcE13_M_widen_initEv(%"class.std::ctype"* nonnull align 8 dereferenceable(570) %55)
  %66 = bitcast %"class.std::ctype"* %55 to i8 (%"class.std::ctype"*, i8)***
  %67 = load i8 (%"class.std::ctype"*, i8)**, i8 (%"class.std::ctype"*, i8)*** %66, align 8, !tbaa !7
  %68 = getelementptr inbounds i8 (%"class.std::ctype"*, i8)*, i8 (%"class.std::ctype"*, i8)** %67, i64 6
  %69 = load i8 (%"class.std::ctype"*, i8)*, i8 (%"class.std::ctype"*, i8)** %68, align 8
  %70 = call signext i8 %69(%"class.std::ctype"* nonnull align 8 dereferenceable(570) %55, i8 signext 10)
  br label %71

71:                                               ; preds = %62, %65
  %72 = phi i8 [ %64, %62 ], [ %70, %65 ]
  %73 = call nonnull align 8 dereferenceable(8) %"class.std::basic_ostream"* @_ZNSo3putEc(%"class.std::basic_ostream"* nonnull align 8 dereferenceable(8) %45, i8 signext %72)
  %74 = call nonnull align 8 dereferenceable(8) %"class.std::basic_ostream"* @_ZNSo5flushEv(%"class.std::basic_ostream"* nonnull align 8 dereferenceable(8) %73)
  %75 = load i32, i32* %1, align 4, !tbaa !18
  %76 = mul nsw i32 %75, 3
  %77 = add nsw i32 %76, 1
  br label %114

78:                                               ; preds = %35
  %79 = call nonnull align 8 dereferenceable(8) %"class.std::basic_ostream"* @_ZSt16__ostream_insertIcSt11char_traitsIcEERSt13basic_ostreamIT_T0_ES6_PKS3_l(%"class.std::basic_ostream"* nonnull align 8 dereferenceable(8) %39, i8* nonnull getelementptr inbounds ([4 x i8], [4 x i8]* @.str.2, i64 0, i64 0), i64 3)
  %80 = load i32, i32* %1, align 4, !tbaa !18
  %81 = sdiv i32 %80, 2
  %82 = call nonnull align 8 dereferenceable(8) %"class.std::basic_ostream"* @_ZNSolsEi(%"class.std::basic_ostream"* nonnull align 8 dereferenceable(8) %39, i32 %81)
  %83 = bitcast %"class.std::basic_ostream"* %82 to i8**
  %84 = load i8*, i8** %83, align 8, !tbaa !7
  %85 = getelementptr i8, i8* %84, i64 -24
  %86 = bitcast i8* %85 to i64*
  %87 = load i64, i64* %86, align 8
  %88 = bitcast %"class.std::basic_ostream"* %82 to i8*
  %89 = add nsw i64 %87, 240
  %90 = getelementptr inbounds i8, i8* %88, i64 %89
  %91 = bitcast i8* %90 to %"class.std::ctype"**
  %92 = load %"class.std::ctype"*, %"class.std::ctype"** %91, align 8, !tbaa !10
  %93 = icmp eq %"class.std::ctype"* %92, null
  br i1 %93, label %94, label %95

94:                                               ; preds = %78
  call void @_ZSt16__throw_bad_castv() #8
  unreachable

95:                                               ; preds = %78
  %96 = getelementptr inbounds %"class.std::ctype", %"class.std::ctype"* %92, i64 0, i32 8
  %97 = load i8, i8* %96, align 8, !tbaa !15
  %98 = icmp eq i8 %97, 0
  br i1 %98, label %102, label %99

99:                                               ; preds = %95
  %100 = getelementptr inbounds %"class.std::ctype", %"class.std::ctype"* %92, i64 0, i32 9, i64 10
  %101 = load i8, i8* %100, align 1, !tbaa !17
  br label %108

102:                                              ; preds = %95
  call void @_ZNKSt5ctypeIcE13_M_widen_initEv(%"class.std::ctype"* nonnull align 8 dereferenceable(570) %92)
  %103 = bitcast %"class.std::ctype"* %92 to i8 (%"class.std::ctype"*, i8)***
  %104 = load i8 (%"class.std::ctype"*, i8)**, i8 (%"class.std::ctype"*, i8)*** %103, align 8, !tbaa !7
  %105 = getelementptr inbounds i8 (%"class.std::ctype"*, i8)*, i8 (%"class.std::ctype"*, i8)** %104, i64 6
  %106 = load i8 (%"class.std::ctype"*, i8)*, i8 (%"class.std::ctype"*, i8)** %105, align 8
  %107 = call signext i8 %106(%"class.std::ctype"* nonnull align 8 dereferenceable(570) %92, i8 signext 10)
  br label %108

108:                                              ; preds = %99, %102
  %109 = phi i8 [ %101, %99 ], [ %107, %102 ]
  %110 = call nonnull align 8 dereferenceable(8) %"class.std::basic_ostream"* @_ZNSo3putEc(%"class.std::basic_ostream"* nonnull align 8 dereferenceable(8) %82, i8 signext %109)
  %111 = call nonnull align 8 dereferenceable(8) %"class.std::basic_ostream"* @_ZNSo5flushEv(%"class.std::basic_ostream"* nonnull align 8 dereferenceable(8) %110)
  %112 = load i32, i32* %1, align 4, !tbaa !18
  %113 = sdiv i32 %112, 2
  br label %114

114:                                              ; preds = %108, %71
  %115 = phi i32 [ %113, %108 ], [ %77, %71 ]
  store i32 %115, i32* %1, align 4, !tbaa !18
  %116 = icmp eq i32 %115, 1
  br i1 %116, label %6, label %35, !llvm.loop !20
}

; Function Attrs: argmemonly mustprogress nofree nosync nounwind willreturn
declare void @llvm.lifetime.start.p0i8(i64 immarg, i8* nocapture) #4

declare nonnull align 8 dereferenceable(16) %"class.std::basic_istream"* @_ZNSirsERi(%"class.std::basic_istream"* nonnull align 8 dereferenceable(16), i32* nonnull align 4 dereferenceable(4)) local_unnamed_addr #0

declare nonnull align 8 dereferenceable(8) %"class.std::basic_ostream"* @_ZNSolsEi(%"class.std::basic_ostream"* nonnull align 8 dereferenceable(8), i32) local_unnamed_addr #0

; Function Attrs: argmemonly mustprogress nofree nosync nounwind willreturn
declare void @llvm.lifetime.end.p0i8(i64 immarg, i8* nocapture) #4

declare nonnull align 8 dereferenceable(8) %"class.std::basic_ostream"* @_ZSt16__ostream_insertIcSt11char_traitsIcEERSt13basic_ostreamIT_T0_ES6_PKS3_l(%"class.std::basic_ostream"* nonnull align 8 dereferenceable(8), i8*, i64) local_unnamed_addr #0

declare nonnull align 8 dereferenceable(8) %"class.std::basic_ostream"* @_ZNSo3putEc(%"class.std::basic_ostream"* nonnull align 8 dereferenceable(8), i8 signext) local_unnamed_addr #0

declare nonnull align 8 dereferenceable(8) %"class.std::basic_ostream"* @_ZNSo5flushEv(%"class.std::basic_ostream"* nonnull align 8 dereferenceable(8)) local_unnamed_addr #0

; Function Attrs: noreturn
declare void @_ZSt16__throw_bad_castv() local_unnamed_addr #5

declare void @_ZNKSt5ctypeIcE13_M_widen_initEv(%"class.std::ctype"* nonnull align 8 dereferenceable(570)) local_unnamed_addr #0

; Function Attrs: sspstrong uwtable
define internal void @_GLOBAL__sub_I_2783.cpp() #6 section ".text.startup" {
  tail call void @_ZNSt8ios_base4InitC1Ev(%"class.std::ios_base::Init"* nonnull align 1 dereferenceable(1) @_ZStL8__ioinit)
  %1 = tail call i32 @__cxa_atexit(void (i8*)* bitcast (void (%"class.std::ios_base::Init"*)* @_ZNSt8ios_base4InitD1Ev to void (i8*)*), i8* getelementptr inbounds (%"class.std::ios_base::Init", %"class.std::ios_base::Init"* @_ZStL8__ioinit, i64 0, i32 0), i8* nonnull @__dso_handle) #7
  ret void
}


!llvm.module.flags = !{!0, !1, !2, !3}
!llvm.ident = !{!4}

!0 = !{i32 1, !"wchar_size", i32 4}
!1 = !{i32 7, !"PIC Level", i32 2}
!2 = !{i32 7, !"PIE Level", i32 2}
!3 = !{i32 7, !"uwtable", i32 1}
!4 = !{!"clang version 13.0.0"}
!5 = distinct !{!5, !6}
!6 = !{!"llvm.loop.mustprogress"}
!7 = !{!8, !8, i64 0}
!8 = !{!"vtable pointer", !9, i64 0}
!9 = !{!"Simple C++ TBAA"}
!10 = !{!11, !12, i64 240}
!11 = !{!"_ZTSSt9basic_iosIcSt11char_traitsIcEE", !12, i64 216, !13, i64 224, !14, i64 225, !12, i64 232, !12, i64 240, !12, i64 248, !12, i64 256}
!12 = !{!"any pointer", !13, i64 0}
!13 = !{!"omnipotent char", !9, i64 0}
!14 = !{!"bool", !13, i64 0}
!15 = !{!16, !13, i64 56}
!16 = !{!"_ZTSSt5ctypeIcE", !12, i64 16, !14, i64 24, !12, i64 32, !12, i64 40, !12, i64 48, !13, i64 56, !13, i64 57, !13, i64 313, !13, i64 569}
!17 = !{!13, !13, i64 0}
!18 = !{!19, !19, i64 0}
!19 = !{!"int", !13, i64 0}
!20 = distinct !{!20, !6}
